Certificate:
    Data:
        Version: 3 (0x2)
        Serial Number: 1 (0x1)
    Signature Algorithm: sha256WithRSAEncryption
        Issuer: C=CZ, ST=HM, L=Prague, O=example.com, OU=training, CN=smt.example.com/emailAddress=jevans@suse.com
        Validity
            Not Before: Nov  6 13:31:24 2019 GMT
            Not After : Nov  5 13:31:24 2020 GMT
        Subject: C=CZ, ST=HM, O=example.com, OU=training, CN=smt.example.com/emailAddress=admin@example.com
        Subject Public Key Info:
            Public Key Algorithm: rsaEncryption
                Public-Key: (2048 bit)
                Modulus:
                    00:a8:7e:cf:ff:40:af:9c:e4:26:26:c1:11:e3:8c:
                    79:55:49:33:2b:7f:d1:c6:35:5a:51:00:39:ed:59:
                    05:6e:06:70:c1:7f:36:d3:4e:3e:cb:fa:7c:6d:99:
                    6f:af:82:60:7b:13:66:ac:80:79:20:57:69:78:3b:
                    9d:4f:c0:04:8d:a0:a1:ab:4d:7c:d0:a4:c3:0d:4b:
                    05:c9:55:1d:20:da:54:f7:c7:a5:f6:b8:08:02:19:
                    85:2b:0e:46:51:16:62:7e:2e:77:27:21:13:25:27:
                    2d:5c:5b:8c:2d:40:9f:34:6b:5c:14:71:de:c8:fb:
                    1b:95:3b:eb:eb:bd:73:db:5f:8f:94:05:d6:77:22:
                    5b:d1:14:03:38:d8:6a:57:db:e0:61:f6:40:53:ca:
                    bb:46:42:25:34:b2:14:b5:df:a9:da:45:49:03:20:
                    d2:7f:75:74:94:b4:57:de:42:fd:d2:fc:9b:19:22:
                    ab:c6:83:81:80:3b:80:1b:1b:55:20:4a:4f:9f:4d:
                    8f:48:15:7e:c0:a2:2b:b7:27:66:d3:8f:31:92:8c:
                    aa:87:cf:9d:25:a8:fe:9f:21:1a:3c:bc:6e:fa:8f:
                    c8:d6:5c:4a:eb:12:6b:d4:73:e6:80:7b:5d:1d:d2:
                    5d:58:b1:22:bc:f3:28:6d:9f:46:c8:fe:01:68:2f:
                    ad:8f
                Exponent: 65537 (0x10001)
        X509v3 extensions:
            X509v3 Basic Constraints: 
                CA:FALSE
            Netscape Comment: 
                OpenSSL Generated Certificate
            X509v3 Subject Key Identifier: 
                BA:C5:7A:AA:A0:09:70:3D:FB:7C:46:1D:8B:77:5D:98:55:13:4B:B0
            X509v3 Authority Key Identifier: 
                keyid:16:D8:6A:18:A1:1A:23:96:8D:4F:7A:57:31:FD:0D:5F:92:3A:A0:68

    Signature Algorithm: sha256WithRSAEncryption
         27:96:45:f9:3f:01:c8:46:62:1f:13:ae:5f:a8:33:7c:cb:03:
         cb:6e:11:6d:19:c5:7c:cb:2c:00:f3:6e:64:de:ea:23:8d:09:
         2d:28:6e:c0:d0:b4:8b:07:d8:4d:db:6d:19:d3:0f:64:43:0d:
         fb:c8:16:68:8e:ce:65:71:bc:d0:64:d8:fe:81:6d:35:87:74:
         33:5b:cc:a6:28:53:17:0b:c1:b9:34:8d:e3:78:4f:3b:78:c1:
         5b:a4:cc:c4:1f:eb:2a:04:9a:fb:ad:1a:20:bc:a0:71:d3:19:
         e3:37:6a:ed:fd:87:59:2a:3c:36:3c:0f:62:ab:c0:e1:9d:a9:
         0d:dd:cb:5f:29:fe:3f:40:2a:b3:ad:03:44:5e:79:38:52:fc:
         46:bd:86:e6:c3:3a:95:c5:7b:bc:a8:a1:5c:1a:84:6b:59:86:
         43:b1:4d:ad:94:fa:f4:64:38:97:86:aa:9e:e7:46:4b:e0:d2:
         d9:ae:f8:53:9f:42:5d:a9:05:39:38:56:31:d9:61:51:3a:22:
         8e:b7:15:d6:9f:eb:76:69:11:32:94:b2:18:0e:66:a3:7d:1c:
         9e:be:07:8a:b1:0e:60:3a:df:52:1b:e4:f1:f2:13:4b:4c:8e:
         a5:bc:22:1d:95:f6:5d:ba:7b:36:1f:3e:9d:0d:95:e6:fb:04:
         7d:bc:94:3b:a0:25:02:cb:59:4e:5a:3c:d4:9b:76:c3:f8:60:
         91:18:53:af:22:95:97:4f:7b:22:b7:cc:c7:41:5c:56:6a:22:
         e9:b3:62:0b:5b:33:2d:ea:c0:f3:53:df:59:f1:11:76:4f:bd:
         30:d9:50:77:f8:42:15:37:77:ae:4c:6c:41:14:9c:fe:eb:83:
         6f:f7:e0:62:14:a9:93:66:49:6d:3a:0f:f3:30:79:32:19:6e:
         9c:75:52:8a:f9:2f:6c:1c:2c:55:19:07:83:d2:70:1c:07:4d:
         33:46:a3:3c:9f:70:ad:9a:06:a1:58:4d:bb:51:03:56:83:0a:
         00:b8:30:13:1d:42:4b:dc:b3:41:17:91:93:56:38:9c:7a:5d:
         3b:0e:93:8a:1c:95:d8:87:b0:ce:08:e9:7b:5c:44:b3:6f:c3:
         df:f0:46:9f:24:27:1f:e4:ff:e8:92:b5:66:e2:05:0a:0e:33:
         56:e8:5e:07:00:f2:4e:cd:0d:dd:af:96:d0:3c:8d:d0:25:a1:
         b8:f6:48:1b:34:19:95:f4:74:cb:69:d3:eb:b2:09:db:d2:2f:
         cb:33:9b:10:47:89:38:8b:54:46:1a:87:61:35:85:ff:e5:94:
         d1:46:48:70:7d:8a:97:f7:8f:77:89:94:07:f2:6b:f5:7d:95:
         10:91:03:17:00:e7:58:36
-----BEGIN CERTIFICATE-----
MIIFBDCCAuygAwIBAgIBATANBgkqhkiG9w0BAQsFADCBjjELMAkGA1UEBhMCQ1ox
CzAJBgNVBAgMAkhNMQ8wDQYDVQQHDAZQcmFndWUxFDASBgNVBAoMC2V4YW1wbGUu
Y29tMREwDwYDVQQLDAh0cmFpbmluZzEYMBYGA1UEAwwPc210LmV4YW1wbGUuY29t
MR4wHAYJKoZIhvcNAQkBFg9qZXZhbnNAc3VzZS5jb20wHhcNMTkxMTA2MTMzMTI0
WhcNMjAxMTA1MTMzMTI0WjB/MQswCQYDVQQGEwJDWjELMAkGA1UECAwCSE0xFDAS
BgNVBAoMC2V4YW1wbGUuY29tMREwDwYDVQQLDAh0cmFpbmluZzEYMBYGA1UEAwwP
c210LmV4YW1wbGUuY29tMSAwHgYJKoZIhvcNAQkBFhFhZG1pbkBleGFtcGxlLmNv
bTCCASIwDQYJKoZIhvcNAQEBBQADggEPADCCAQoCggEBAKh+z/9Ar5zkJibBEeOM
eVVJMyt/0cY1WlEAOe1ZBW4GcMF/NtNOPsv6fG2Zb6+CYHsTZqyAeSBXaXg7nU/A
BI2goatNfNCkww1LBclVHSDaVPfHpfa4CAIZhSsORlEWYn4udychEyUnLVxbjC1A
nzRrXBRx3sj7G5U76+u9c9tfj5QF1nciW9EUAzjYalfb4GH2QFPKu0ZCJTSyFLXf
qdpFSQMg0n91dJS0V95C/dL8mxkiq8aDgYA7gBsbVSBKT59Nj0gVfsCiK7cnZtOP
MZKMqofPnSWo/p8hGjy8bvqPyNZcSusSa9Rz5oB7XR3SXVixIrzzKG2fRsj+AWgv
rY8CAwEAAaN7MHkwCQYDVR0TBAIwADAsBglghkgBhvhCAQ0EHxYdT3BlblNTTCBH
ZW5lcmF0ZWQgQ2VydGlmaWNhdGUwHQYDVR0OBBYEFLrFeqqgCXA9+3xGHYt3XZhV
E0uwMB8GA1UdIwQYMBaAFBbYahihGiOWjU96VzH9DV+SOqBoMA0GCSqGSIb3DQEB
CwUAA4ICAQAnlkX5PwHIRmIfE65fqDN8ywPLbhFtGcV8yywA825k3uojjQktKG7A
0LSLB9hN220Z0w9kQw37yBZojs5lcbzQZNj+gW01h3QzW8ymKFMXC8G5NI3jeE87
eMFbpMzEH+sqBJr7rRogvKBx0xnjN2rt/YdZKjw2PA9iq8DhnakN3ctfKf4/QCqz
rQNEXnk4UvxGvYbmwzqVxXu8qKFcGoRrWYZDsU2tlPr0ZDiXhqqe50ZL4NLZrvhT
n0JdqQU5OFYx2WFROiKOtxXWn+t2aREylLIYDmajfRyevgeKsQ5gOt9SG+Tx8hNL
TI6lvCIdlfZduns2Hz6dDZXm+wR9vJQ7oCUCy1lOWjzUm3bD+GCRGFOvIpWXT3si
t8zHQVxWaiLps2ILWzMt6sDzU99Z8RF2T70w2VB3+EIVN3euTGxBFJz+64Nv9+Bi
FKmTZkltOg/zMHkyGW6cdVKK+S9sHCxVGQeD0nAcB00zRqM8n3CtmgahWE27UQNW
gwoAuDATHUJL3LNBF5GTVjicel07DpOKHJXYh7DOCOl7XESzb8Pf8EafJCcf5P/o
krVm4gUKDjNW6F4HAPJOzQ3dr5bQPI3QJaG49kgbNBmV9HTLadPrsgnb0i/LM5sQ
R4k4i1RGGodhNYX/5ZTRRkhwfYqX9493iZQH8mv1fZUQkQMXAOdYNg==
-----END CERTIFICATE-----
